; Function Attrs: mustprogress nounwind uwtable
define dso_local noundef ptr @_ZNK4llvm11GlobalIFunc19getResolverFunctionEv(ptr nocapture noundef nonnull readonly align 8 dereferenceable(72) %0) local_unnamed_addr #1 align 2 {
  %2 = getelementptr inbounds i8, ptr %0, i64 -32
  %3 = load ptr, ptr %2, align 8
  %4 = tail call noundef ptr @_ZNK4llvm5Value27stripPointerCastsAndAliasesEv(ptr noundef nonnull align 8 dereferenceable(24) %3) #12
  %5 = load i8, ptr %4, align 8
  %6 = icmp eq i8 %5, 0
  %spec.select.i.i = select i1 %6, ptr %4, ptr null
  ret ptr %spec.select.i.i
}